; Function Attrs: nounwind uwtable
define dso_local range(i32 -1, 1) i32 @bit_unfmt(ptr noundef captures(none) %0, ptr noundef %1) #0 {
  %3 = alloca ptr, align 8
  call void @llvm.lifetime.start.p0(i64 8, ptr nonnull %3) #17
  %.not = icmp eq ptr %1, null
  br i1 %.not, label %12, label %4

4:                                                ; preds = %2
  %5 = load i8, ptr %1, align 1
  %6 = icmp eq i8 %5, 0
  br i1 %6, label %12, label %7

7:                                                ; preds = %4
  %8 = tail call ptr @bitfmt2int(ptr noundef nonnull %1)
  store ptr %8, ptr %3, align 8
  %9 = icmp eq ptr %8, null
  br i1 %9, label %12, label %10

10:                                               ; preds = %7
  %11 = tail call i32 @inx2bitstr(ptr noundef %0, ptr noundef nonnull %8)
  call void @slurm_xfree(ptr noundef nonnull %3) #17
  br label %12

12:                                               ; preds = %7, %2, %4, %10
  %.0 = phi i32 [ %11, %10 ], [ 0, %4 ], [ 0, %2 ], [ -1, %7 ]
  call void @llvm.lifetime.end.p0(i64 8, ptr nonnull %3) #17
  ret i32 %.0
}